; Function Attrs: null_pointer_is_valid sspstrong uwtable
define internal range(i32 -268435456, 268435456) i32 @dissect_PagingCauseIndicationForVoiceService_PDU(ptr noundef %0, ptr noundef %1, ptr noundef %2, ptr readnone captures(none) %3) #0 {
  %5 = alloca i32, align 4
  %6 = alloca %struct._asn1_ctx_t, align 8
  call void @llvm.lifetime.start.p0(i64 208, ptr nonnull %6) #12
  call void @asn1_ctx_init(ptr noundef nonnull %6, i32 noundef 1, i1 noundef zeroext true, ptr noundef %1)
  %7 = load i32, ptr @hf_ngap_PagingCauseIndicationForVoiceService_PDU, align 4
  call void @llvm.lifetime.start.p0(i64 4, ptr nonnull %5) #12
  %8 = call i32 @dissect_per_enumerated(ptr noundef %0, i32 noundef 0, ptr noundef nonnull %6, ptr noundef %2, i32 noundef %7, i32 noundef 1, ptr noundef nonnull %5, i1 noundef zeroext true, i32 noundef 0, ptr noundef null)
  %9 = getelementptr inbounds nuw i8, ptr %6, i64 16
  %10 = load ptr, ptr %9, align 8
  %11 = getelementptr inbounds nuw i8, ptr %10, i64 8
  %12 = load ptr, ptr %11, align 8
  %13 = load i32, ptr %5, align 4
  %14 = call ptr @val_to_str_const(i32 noundef %13, ptr noundef nonnull @ngap_PagingCauseIndicationForVoiceService_vals, ptr noundef nonnull @.str.3482)
  call void (ptr, i32, ptr, ...) @col_append_fstr(ptr noundef %12, i32 noundef 25, ptr noundef nonnull @.str.3622, ptr noundef %14)
  call void @llvm.lifetime.end.p0(i64 4, ptr nonnull %5) #12
  %15 = add i32 %8, 7
  %16 = ashr i32 %15, 3
  call void @llvm.lifetime.end.p0(i64 208, ptr nonnull %6) #12
  ret i32 %16
}